target datalayout = "e-m:e-p270:32:32-p271:32:32-p272:64:64-i64:64-i128:128-f80:128-n8:16:32:64-S128"
target triple = "x86_64-pc-linux-gnu"

%struct.archive = type { i32, i32, ptr, i32, ptr, i32, i32, ptr, %struct.archive_string, ptr, i32, i32, ptr, ptr, i64, i64, i64, i8, i64 }
%struct.archive_string = type { ptr, i64, i64 }
%struct.private_data = type { i32, %struct.bz_stream, i64, ptr, i64 }
%struct.bz_stream = type { ptr, i32, i32, i32, ptr, i32, i32, i32, ptr, ptr, ptr, ptr }
%struct.archive_write_filter = type { i64, ptr, ptr, ptr, ptr, ptr, ptr, ptr, ptr, ptr, ptr, i32, i32, i32, i32 }

@.str.4 = private unnamed_addr constant [43 x i8] c"Can't allocate data for compression buffer\00", align 1
@.str.5 = private unnamed_addr constant [48 x i8] c"Internal error initializing compression library\00", align 1
@.str.6 = private unnamed_addr constant [73 x i8] c"Internal error initializing compression library: invalid setup parameter\00", align 1
@.str.7 = private unnamed_addr constant [63 x i8] c"Internal error initializing compression library: out of memory\00", align 1
@.str.8 = private unnamed_addr constant [70 x i8] c"Internal error initializing compression library: mis-compiled library\00", align 1

; Function Attrs: nounwind uwtable
define internal i32 @archive_compressor_bzip2_open(ptr noundef %0) #0 {
  %2 = alloca i32, align 4
  %3 = alloca ptr, align 8
  %4 = alloca ptr, align 8
  %5 = alloca i32, align 4
  %6 = alloca i64, align 8
  %7 = alloca i64, align 8
  %8 = alloca i32, align 4
  store ptr %0, ptr %3, align 8, !tbaa !11
  call void @llvm.lifetime.start.p0(i64 8, ptr %4) #8
  %9 = load ptr, ptr %3, align 8, !tbaa !11
  %10 = getelementptr inbounds nuw %struct.archive_write_filter, ptr %9, i32 0, i32 9
  %11 = load ptr, ptr %10, align 8, !tbaa !22
  store ptr %11, ptr %4, align 8, !tbaa !15
  call void @llvm.lifetime.start.p0(i64 4, ptr %5) #8
  %12 = load ptr, ptr %4, align 8, !tbaa !15
  %13 = getelementptr inbounds nuw %struct.private_data, ptr %12, i32 0, i32 3
  %14 = load ptr, ptr %13, align 8, !tbaa !33
  %15 = icmp eq ptr %14, null
  br i1 %15, label %16, label %67

16:                                               ; preds = %1
  call void @llvm.lifetime.start.p0(i64 8, ptr %6) #8
  store i64 65536, ptr %6, align 8, !tbaa !37
  call void @llvm.lifetime.start.p0(i64 8, ptr %7) #8
  %17 = load ptr, ptr %3, align 8, !tbaa !11
  %18 = getelementptr inbounds nuw %struct.archive_write_filter, ptr %17, i32 0, i32 1
  %19 = load ptr, ptr %18, align 8, !tbaa !36
  %20 = getelementptr inbounds nuw %struct.archive, ptr %19, i32 0, i32 0
  %21 = load i32, ptr %20, align 8, !tbaa !38
  %22 = icmp eq i32 %21, -1329217314
  br i1 %22, label %23, label %45

23:                                               ; preds = %16
  %24 = load ptr, ptr %3, align 8, !tbaa !11
  %25 = getelementptr inbounds nuw %struct.archive_write_filter, ptr %24, i32 0, i32 1
  %26 = load ptr, ptr %25, align 8, !tbaa !36
  %27 = call i32 @archive_write_get_bytes_per_block(ptr noundef %26)
  %28 = sext i32 %27 to i64
  store i64 %28, ptr %7, align 8, !tbaa !37
  %29 = load i64, ptr %7, align 8, !tbaa !37
  %30 = load i64, ptr %6, align 8, !tbaa !37
  %31 = icmp ugt i64 %29, %30
  br i1 %31, label %32, label %34

32:                                               ; preds = %23
  %33 = load i64, ptr %7, align 8, !tbaa !37
  store i64 %33, ptr %6, align 8, !tbaa !37
  br label %44

34:                                               ; preds = %23
  %35 = load i64, ptr %7, align 8, !tbaa !37
  %36 = icmp ne i64 %35, 0
  br i1 %36, label %37, label %43

37:                                               ; preds = %34
  %38 = load i64, ptr %6, align 8, !tbaa !37
  %39 = load i64, ptr %7, align 8, !tbaa !37
  %40 = urem i64 %38, %39
  %41 = load i64, ptr %6, align 8, !tbaa !37
  %42 = sub i64 %41, %40
  store i64 %42, ptr %6, align 8, !tbaa !37
  br label %43

43:                                               ; preds = %37, %34
  br label %44

44:                                               ; preds = %43, %32
  br label %45

45:                                               ; preds = %44, %16
  %46 = load i64, ptr %6, align 8, !tbaa !37
  %47 = load ptr, ptr %4, align 8, !tbaa !15
  %48 = getelementptr inbounds nuw %struct.private_data, ptr %47, i32 0, i32 4
  store i64 %46, ptr %48, align 8, !tbaa !34
  %49 = load ptr, ptr %4, align 8, !tbaa !15
  %50 = getelementptr inbounds nuw %struct.private_data, ptr %49, i32 0, i32 4
  %51 = load i64, ptr %50, align 8, !tbaa !34
  %52 = call noalias ptr @malloc(i64 noundef %51) #11
  %53 = load ptr, ptr %4, align 8, !tbaa !15
  %54 = getelementptr inbounds nuw %struct.private_data, ptr %53, i32 0, i32 3
  store ptr %52, ptr %54, align 8, !tbaa !33
  %55 = load ptr, ptr %4, align 8, !tbaa !15
  %56 = getelementptr inbounds nuw %struct.private_data, ptr %55, i32 0, i32 3
  %57 = load ptr, ptr %56, align 8, !tbaa !33
  %58 = icmp eq ptr %57, null
  br i1 %58, label %59, label %63

59:                                               ; preds = %45
  %60 = load ptr, ptr %3, align 8, !tbaa !11
  %61 = getelementptr inbounds nuw %struct.archive_write_filter, ptr %60, i32 0, i32 1
  %62 = load ptr, ptr %61, align 8, !tbaa !36
  call void (ptr, i32, ptr, ...) @archive_set_error(ptr noundef %62, i32 noundef 12, ptr noundef @.str.4)
  store i32 -30, ptr %2, align 4
  store i32 1, ptr %8, align 4
  br label %64

63:                                               ; preds = %45
  store i32 0, ptr %8, align 4
  br label %64

64:                                               ; preds = %63, %59
  call void @llvm.lifetime.end.p0(i64 8, ptr %7) #8
  call void @llvm.lifetime.end.p0(i64 8, ptr %6) #8
  %65 = load i32, ptr %8, align 4
  switch i32 %65, label %115 [
    i32 0, label %66
  ]

66:                                               ; preds = %64
  br label %67

67:                                               ; preds = %66, %1
  %68 = load ptr, ptr %4, align 8, !tbaa !15
  %69 = getelementptr inbounds nuw %struct.private_data, ptr %68, i32 0, i32 1
  call void @llvm.memset.p0.i64(ptr align 8 %69, i8 0, i64 80, i1 false)
  %70 = load ptr, ptr %4, align 8, !tbaa !15
  %71 = getelementptr inbounds nuw %struct.private_data, ptr %70, i32 0, i32 3
  %72 = load ptr, ptr %71, align 8, !tbaa !33
  %73 = load ptr, ptr %4, align 8, !tbaa !15
  %74 = getelementptr inbounds nuw %struct.private_data, ptr %73, i32 0, i32 1
  %75 = getelementptr inbounds nuw %struct.bz_stream, ptr %74, i32 0, i32 4
  store ptr %72, ptr %75, align 8, !tbaa !43
  %76 = load ptr, ptr %4, align 8, !tbaa !15
  %77 = getelementptr inbounds nuw %struct.private_data, ptr %76, i32 0, i32 4
  %78 = load i64, ptr %77, align 8, !tbaa !34
  %79 = trunc i64 %78 to i32
  %80 = load ptr, ptr %4, align 8, !tbaa !15
  %81 = getelementptr inbounds nuw %struct.private_data, ptr %80, i32 0, i32 1
  %82 = getelementptr inbounds nuw %struct.bz_stream, ptr %81, i32 0, i32 5
  store i32 %79, ptr %82, align 8, !tbaa !35
  %83 = load ptr, ptr %3, align 8, !tbaa !11
  %84 = getelementptr inbounds nuw %struct.archive_write_filter, ptr %83, i32 0, i32 5
  store ptr @archive_compressor_bzip2_write, ptr %84, align 8, !tbaa !44
  %85 = load ptr, ptr %4, align 8, !tbaa !15
  %86 = getelementptr inbounds nuw %struct.private_data, ptr %85, i32 0, i32 1
  %87 = load ptr, ptr %4, align 8, !tbaa !15
  %88 = getelementptr inbounds nuw %struct.private_data, ptr %87, i32 0, i32 0
  %89 = load i32, ptr %88, align 8, !tbaa !17
  %90 = call i32 @BZ2_bzCompressInit(ptr noundef %86, i32 noundef %89, i32 noundef 0, i32 noundef 30)
  store i32 %90, ptr %5, align 4, !tbaa !13
  %91 = load i32, ptr %5, align 4, !tbaa !13
  %92 = icmp eq i32 %91, 0
  br i1 %92, label %93, label %97

93:                                               ; preds = %67
  %94 = load ptr, ptr %4, align 8, !tbaa !15
  %95 = load ptr, ptr %3, align 8, !tbaa !11
  %96 = getelementptr inbounds nuw %struct.archive_write_filter, ptr %95, i32 0, i32 9
  store ptr %94, ptr %96, align 8, !tbaa !22
  store i32 0, ptr %2, align 4
  store i32 1, ptr %8, align 4
  br label %115

97:                                               ; preds = %67
  %98 = load ptr, ptr %3, align 8, !tbaa !11
  %99 = getelementptr inbounds nuw %struct.archive_write_filter, ptr %98, i32 0, i32 1
  %100 = load ptr, ptr %99, align 8, !tbaa !36
  call void (ptr, i32, ptr, ...) @archive_set_error(ptr noundef %100, i32 noundef -1, ptr noundef @.str.5)
  %101 = load i32, ptr %5, align 4, !tbaa !13
  switch i32 %101, label %114 [
    i32 -2, label %102
    i32 -3, label %106
    i32 -9, label %110
  ]

102:                                              ; preds = %97
  %103 = load ptr, ptr %3, align 8, !tbaa !11
  %104 = getelementptr inbounds nuw %struct.archive_write_filter, ptr %103, i32 0, i32 1
  %105 = load ptr, ptr %104, align 8, !tbaa !36
  call void (ptr, i32, ptr, ...) @archive_set_error(ptr noundef %105, i32 noundef -1, ptr noundef @.str.6)
  br label %114

106:                                              ; preds = %97
  %107 = load ptr, ptr %3, align 8, !tbaa !11
  %108 = getelementptr inbounds nuw %struct.archive_write_filter, ptr %107, i32 0, i32 1
  %109 = load ptr, ptr %108, align 8, !tbaa !36
  call void (ptr, i32, ptr, ...) @archive_set_error(ptr noundef %109, i32 noundef 12, ptr noundef @.str.7)
  br label %114

110:                                              ; preds = %97
  %111 = load ptr, ptr %3, align 8, !tbaa !11
  %112 = getelementptr inbounds nuw %struct.archive_write_filter, ptr %111, i32 0, i32 1
  %113 = load ptr, ptr %112, align 8, !tbaa !36
  call void (ptr, i32, ptr, ...) @archive_set_error(ptr noundef %113, i32 noundef -1, ptr noundef @.str.8)
  br label %114

114:                                              ; preds = %97, %110, %106, %102
  store i32 -30, ptr %2, align 4
  store i32 1, ptr %8, align 4
  br label %115

115:                                              ; preds = %114, %93, %64
  call void @llvm.lifetime.end.p0(i64 4, ptr %5) #8
  call void @llvm.lifetime.end.p0(i64 8, ptr %4) #8
  %116 = load i32, ptr %2, align 4
  ret i32 %116
}