; Function Attrs: nounwind uwtable
define internal range(i32 -30, 1) i32 @archive_compressor_bzip2_open(ptr noundef captures(none) %0) #0 {
  %2 = getelementptr inbounds nuw i8, ptr %0, i64 72
  %3 = load ptr, ptr %2, align 8, !tbaa !13
  %4 = getelementptr inbounds nuw i8, ptr %3, i64 96
  %5 = load ptr, ptr %4, align 8, !tbaa !26
  %6 = icmp eq ptr %5, null
  br i1 %6, label %7, label %..critedge_crit_edge

..critedge_crit_edge:                             ; preds = %1
  %.phi.trans.insert = getelementptr inbounds nuw i8, ptr %3, i64 104
  %.pre = load i64, ptr %.phi.trans.insert, align 8, !tbaa !27
  br label %.critedge

7:                                                ; preds = %1
  %8 = getelementptr inbounds nuw i8, ptr %0, i64 8
  %9 = load ptr, ptr %8, align 8, !tbaa !29
  %10 = load i32, ptr %9, align 8, !tbaa !30
  %11 = icmp eq i32 %10, -1329217314
  br i1 %11, label %12, label %20

12:                                               ; preds = %7
  %13 = tail call i32 @archive_write_get_bytes_per_block(ptr noundef nonnull %9) #9
  %14 = sext i32 %13 to i64
  %15 = icmp ugt i32 %13, 65536
  br i1 %15, label %20, label %16

16:                                               ; preds = %12
  %.not = icmp eq i32 %13, 0
  br i1 %.not, label %20, label %17

17:                                               ; preds = %16
  %18 = urem i64 65536, %14
  %19 = sub nuw nsw i64 65536, %18
  br label %20

20:                                               ; preds = %12, %17, %16, %7
  %.035 = phi i64 [ %19, %17 ], [ 65536, %16 ], [ 65536, %7 ], [ %14, %12 ]
  %21 = getelementptr inbounds nuw i8, ptr %3, i64 104
  store i64 %.035, ptr %21, align 8, !tbaa !27
  %22 = tail call noalias ptr @malloc(i64 noundef %.035) #12
  store ptr %22, ptr %4, align 8, !tbaa !26
  %.not39 = icmp eq ptr %22, null
  br i1 %.not39, label %23, label %.critedge

23:                                               ; preds = %20
  %24 = load ptr, ptr %8, align 8, !tbaa !29
  tail call void (ptr, i32, ptr, ...) @archive_set_error(ptr noundef %24, i32 noundef 12, ptr noundef nonnull @.str.4) #9
  br label %45

.critedge:                                        ; preds = %..critedge_crit_edge, %20
  %25 = phi i64 [ %.035, %20 ], [ %.pre, %..critedge_crit_edge ]
  %26 = phi ptr [ %22, %20 ], [ %5, %..critedge_crit_edge ]
  %27 = getelementptr inbounds nuw i8, ptr %3, i64 8
  tail call void @llvm.memset.p0.i64(ptr noundef nonnull align 8 dereferenceable(80) %27, i8 0, i64 80, i1 false)
  %28 = getelementptr inbounds nuw i8, ptr %3, i64 32
  store ptr %26, ptr %28, align 8, !tbaa !28
  %29 = trunc i64 %25 to i32
  %30 = getelementptr inbounds nuw i8, ptr %3, i64 40
  store i32 %29, ptr %30, align 8, !tbaa !24
  %31 = getelementptr inbounds nuw i8, ptr %0, i64 40
  store ptr @archive_compressor_bzip2_write, ptr %31, align 8, !tbaa !35
  %32 = load i32, ptr %3, align 8, !tbaa !4
  %33 = tail call i32 @BZ2_bzCompressInit(ptr noundef nonnull %27, i32 noundef %32, i32 noundef 0, i32 noundef 30) #9
  %34 = icmp eq i32 %33, 0
  br i1 %34, label %35, label %36

35:                                               ; preds = %.critedge
  store ptr %3, ptr %2, align 8, !tbaa !13
  br label %45

36:                                               ; preds = %.critedge
  %37 = getelementptr inbounds nuw i8, ptr %0, i64 8
  %38 = load ptr, ptr %37, align 8, !tbaa !29
  tail call void (ptr, i32, ptr, ...) @archive_set_error(ptr noundef %38, i32 noundef -1, ptr noundef nonnull @.str.5) #9
  switch i32 %33, label %45 [
    i32 -2, label %39
    i32 -3, label %41
    i32 -9, label %43
  ]

39:                                               ; preds = %36
  %40 = load ptr, ptr %37, align 8, !tbaa !29
  tail call void (ptr, i32, ptr, ...) @archive_set_error(ptr noundef %40, i32 noundef -1, ptr noundef nonnull @.str.6) #9
  br label %45

41:                                               ; preds = %36
  %42 = load ptr, ptr %37, align 8, !tbaa !29
  tail call void (ptr, i32, ptr, ...) @archive_set_error(ptr noundef %42, i32 noundef 12, ptr noundef nonnull @.str.7) #9
  br label %45

43:                                               ; preds = %36
  %44 = load ptr, ptr %37, align 8, !tbaa !29
  tail call void (ptr, i32, ptr, ...) @archive_set_error(ptr noundef %44, i32 noundef -1, ptr noundef nonnull @.str.8) #9
  br label %45

45:                                               ; preds = %23, %36, %39, %41, %43, %35
  %.1 = phi i32 [ 0, %35 ], [ -30, %23 ], [ -30, %43 ], [ -30, %41 ], [ -30, %39 ], [ -30, %36 ]
  ret i32 %.1
}